; ModuleID = '42/65.c'
source_filename = "42/65.c"
target datalayout = "e-m:e-p270:32:32-p271:32:32-p272:64:64-i64:64-f80:128-n8:16:32:64-S128"
target triple = "x86_64-pc-linux-gnu"

@.str = private unnamed_addr constant [4 x i8] c"%d\0A\00", align 1
@.str.1 = private unnamed_addr constant [3 x i8] c"%d\00", align 1
@.str.2 = private unnamed_addr constant [2 x i8] c"\0A\00", align 1
@.str.3 = private unnamed_addr constant [4 x i8] c" %d\00", align 1

; Function Attrs: noinline nounwind uwtable
define dso_local void @main() #0 {
  %1 = alloca i32, align 4
  %2 = alloca i32, align 4
  %3 = alloca i32, align 4
  %4 = alloca i32, align 4
  %5 = alloca [100000 x i32], align 16
  %6 = call i32 (i8*, ...) @__isoc99_scanf(i8* getelementptr inbounds ([4 x i8], [4 x i8]* @.str, i64 0, i64 0), i32* %1)
  store i32 0, i32* %2, align 4
  br label %7

7:                                                ; preds = %17, %0
  %8 = load i32, i32* %2, align 4
  %9 = load i32, i32* %1, align 4
  %10 = sub nsw i32 %9, 1
  %11 = icmp sle i32 %8, %10
  br i1 %11, label %12, label %20

12:                                               ; preds = %7
  %13 = load i32, i32* %2, align 4
  %14 = sext i32 %13 to i64
  %15 = getelementptr inbounds [100000 x i32], [100000 x i32]* %5, i64 0, i64 %14
  %16 = call i32 (i8*, ...) @__isoc99_scanf(i8* getelementptr inbounds ([3 x i8], [3 x i8]* @.str.1, i64 0, i64 0), i32* %15)
  br label %17

17:                                               ; preds = %12
  %18 = load i32, i32* %2, align 4
  %19 = add nsw i32 %18, 1
  store i32 %19, i32* %2, align 4
  br label %7

20:                                               ; preds = %7
  %21 = call i32 (i8*, ...) @printf(i8* getelementptr inbounds ([2 x i8], [2 x i8]* @.str.2, i64 0, i64 0))
  %22 = call i32 (i8*, ...) @__isoc99_scanf(i8* getelementptr inbounds ([3 x i8], [3 x i8]* @.str.1, i64 0, i64 0), i32* %3)
  store i32 0, i32* %2, align 4
  br label %23

23:                                               ; preds = %40, %20
  %24 = load i32, i32* %2, align 4
  %25 = load i32, i32* %1, align 4
  %26 = sub nsw i32 %25, 1
  %27 = icmp sle i32 %24, %26
  br i1 %27, label %28, label %43

28:                                               ; preds = %23
  %29 = load i32, i32* %2, align 4
  %30 = sext i32 %29 to i64
  %31 = getelementptr inbounds [100000 x i32], [100000 x i32]* %5, i64 0, i64 %30
  %32 = load i32, i32* %31, align 4
  %33 = load i32, i32* %3, align 4
  %34 = icmp eq i32 %32, %33
  br i1 %34, label %35, label %39

35:                                               ; preds = %28
  %36 = load i32, i32* %2, align 4
  %37 = sext i32 %36 to i64
  %38 = getelementptr inbounds [100000 x i32], [100000 x i32]* %5, i64 0, i64 %37
  store i32 97, i32* %38, align 4
  br label %39

39:                                               ; preds = %35, %28
  br label %40

40:                                               ; preds = %39
  %41 = load i32, i32* %2, align 4
  %42 = add nsw i32 %41, 1
  store i32 %42, i32* %2, align 4
  br label %23

43:                                               ; preds = %23
  %44 = load i32, i32* %1, align 4
  %45 = icmp eq i32 %44, 1
  br i1 %45, label %46, label %55

46:                                               ; preds = %43
  %47 = getelementptr inbounds [100000 x i32], [100000 x i32]* %5, i64 0, i64 0
  %48 = load i32, i32* %47, align 16
  %49 = icmp ne i32 %48, 97
  br i1 %49, label %50, label %54

50:                                               ; preds = %46
  %51 = getelementptr inbounds [100000 x i32], [100000 x i32]* %5, i64 0, i64 0
  %52 = load i32, i32* %51, align 16
  %53 = call i32 (i8*, ...) @printf(i8* getelementptr inbounds ([3 x i8], [3 x i8]* @.str.1, i64 0, i64 0), i32 %52)
  br label %54

54:                                               ; preds = %50, %46
  br label %102

55:                                               ; preds = %43
  store i32 0, i32* %2, align 4
  br label %56

56:                                               ; preds = %98, %55
  %57 = load i32, i32* %2, align 4
  %58 = load i32, i32* %1, align 4
  %59 = sub nsw i32 %58, 1
  %60 = icmp sle i32 %57, %59
  br i1 %60, label %61, label %101

61:                                               ; preds = %56
  %62 = load i32, i32* %2, align 4
  %63 = sext i32 %62 to i64
  %64 = getelementptr inbounds [100000 x i32], [100000 x i32]* %5, i64 0, i64 %63
  %65 = load i32, i32* %64, align 4
  %66 = icmp ne i32 %65, 97
  br i1 %66, label %67, label %97

67:                                               ; preds = %61
  %68 = load i32, i32* %2, align 4
  %69 = sext i32 %68 to i64
  %70 = getelementptr inbounds [100000 x i32], [100000 x i32]* %5, i64 0, i64 %69
  %71 = load i32, i32* %70, align 4
  %72 = call i32 (i8*, ...) @printf(i8* getelementptr inbounds ([3 x i8], [3 x i8]* @.str.1, i64 0, i64 0), i32 %71)
  %73 = load i32, i32* %2, align 4
  %74 = add nsw i32 %73, 1
  store i32 %74, i32* %4, align 4
  br label %75

75:                                               ; preds = %93, %67
  %76 = load i32, i32* %4, align 4
  %77 = load i32, i32* %1, align 4
  %78 = sub nsw i32 %77, 1
  %79 = icmp sle i32 %76, %78
  br i1 %79, label %80, label %96

80:                                               ; preds = %75
  %81 = load i32, i32* %4, align 4
  %82 = sext i32 %81 to i64
  %83 = getelementptr inbounds [100000 x i32], [100000 x i32]* %5, i64 0, i64 %82
  %84 = load i32, i32* %83, align 4
  %85 = icmp ne i32 %84, 97
  br i1 %85, label %86, label %92

86:                                               ; preds = %80
  %87 = load i32, i32* %4, align 4
  %88 = sext i32 %87 to i64
  %89 = getelementptr inbounds [100000 x i32], [100000 x i32]* %5, i64 0, i64 %88
  %90 = load i32, i32* %89, align 4
  %91 = call i32 (i8*, ...) @printf(i8* getelementptr inbounds ([4 x i8], [4 x i8]* @.str.3, i64 0, i64 0), i32 %90)
  br label %92

92:                                               ; preds = %86, %80
  br label %93

93:                                               ; preds = %92
  %94 = load i32, i32* %4, align 4
  %95 = add nsw i32 %94, 1
  store i32 %95, i32* %4, align 4
  br label %75

96:                                               ; preds = %75
  br label %101

97:                                               ; preds = %61
  br label %98

98:                                               ; preds = %97
  %99 = load i32, i32* %2, align 4
  %100 = add nsw i32 %99, 1
  store i32 %100, i32* %2, align 4
  br label %56

101:                                              ; preds = %96, %56
  br label %102

102:                                              ; preds = %101, %54
  ret void
}

declare dso_local i32 @__isoc99_scanf(i8*, ...) #1

declare dso_local i32 @printf(i8*, ...) #1


!llvm.module.flags = !{!0}
!llvm.ident = !{!1}

!0 = !{i32 1, !"wchar_size", i32 4}
!1 = !{!"clang version 10.0.0-4ubuntu1 "}
